(dp0
S'current'
p1
S'testerAgain'
p2
sS'count'
p3
I8
sS'logs'
p4
(lp5
S'testing'
p6
aS'Senior Project'
p7
aS'bugs fixed'
p8
aS'testy test'
p9
aS'testerAgain'
p10
asS'path'
p11
S'/Users/TheCmar7/Developer/python/Logit/logit_saves/'
p12
s.